target datalayout = "e-m:e-p270:32:32-p271:32:32-p272:64:64-i64:64-i128:128-f80:128-n8:16:32:64-S128"
target triple = "x86_64-pc-linux-gnu"

%struct.expert_field = type { i32, i32 }

@hf_flex_frame_durability_req = internal global i32 0, align 4
@ei_warn_unknown_flex_len = internal global %struct.expert_field zeroinitializer, align 4
@.str.752 = private unnamed_addr constant [45 x i8] c"FlexFrame: Durability with illegal length %d\00", align 1

; Function Attrs: null_pointer_is_valid sspstrong uwtable
define internal void @flex_frame_durability_dissect(ptr noundef %0, ptr noundef %1, i32 noundef %2, i32 noundef %3) #0 {
  %5 = alloca ptr, align 8
  %6 = alloca ptr, align 8
  %7 = alloca i32, align 4
  %8 = alloca i32, align 4
  store ptr %0, ptr %5, align 8
  store ptr %1, ptr %6, align 8
  store i32 %2, ptr %7, align 4
  store i32 %3, ptr %8, align 4
  %9 = load i32, ptr %8, align 4
  %10 = icmp eq i32 %9, 1
  br i1 %10, label %21, label %11

11:                                               ; preds = %4
  %12 = load i32, ptr %8, align 4
  %13 = icmp eq i32 %12, 3
  br i1 %13, label %21, label %14

14:                                               ; preds = %11
  %15 = load ptr, ptr %6, align 8
  %16 = load ptr, ptr %5, align 8
  %17 = load i32, ptr %7, align 4
  %18 = load i32, ptr %8, align 4
  %19 = load i32, ptr %8, align 4
  %20 = call ptr (ptr, ptr, ptr, ptr, i32, i32, ptr, ...) @proto_tree_add_expert_format(ptr noundef %15, ptr noundef null, ptr noundef @ei_warn_unknown_flex_len, ptr noundef %16, i32 noundef %17, i32 noundef %18, ptr noundef @.str.752, i32 noundef %19)
  br label %27

21:                                               ; preds = %11, %4
  %22 = load ptr, ptr %6, align 8
  %23 = load i32, ptr @hf_flex_frame_durability_req, align 4
  %24 = load ptr, ptr %5, align 8
  %25 = load i32, ptr %7, align 4
  %26 = call ptr @proto_tree_add_item(ptr noundef %22, i32 noundef %23, ptr noundef %24, i32 noundef %25, i32 noundef 1, i32 noundef 0)
  br label %27

27:                                               ; preds = %21, %14
  ret void
}