; Function Attrs: null_pointer_is_valid sspstrong uwtable
define internal void @flex_frame_durability_dissect(ptr noundef %0, ptr noundef %1, i32 noundef %2, i32 noundef %3) #0 {
  %5 = and i32 %3, -3
  %or.cond = icmp eq i32 %5, 1
  br i1 %or.cond, label %8, label %6

6:                                                ; preds = %4
  %7 = tail call ptr (ptr, ptr, ptr, ptr, i32, i32, ptr, ...) @proto_tree_add_expert_format(ptr noundef %1, ptr noundef null, ptr noundef nonnull @ei_warn_unknown_flex_len, ptr noundef %0, i32 noundef %2, i32 noundef %3, ptr noundef nonnull @.str.752, i32 noundef %3)
  br label %11

8:                                                ; preds = %4
  %9 = load i32, ptr @hf_flex_frame_durability_req, align 4
  %10 = tail call ptr @proto_tree_add_item(ptr noundef %1, i32 noundef %9, ptr noundef %0, i32 noundef %2, i32 noundef 1, i32 noundef 0)
  br label %11

11:                                               ; preds = %8, %6
  ret void
}